target datalayout = "e-m:e-p270:32:32-p271:32:32-p272:64:64-i64:64-i128:128-f80:128-n8:16:32:64-S128"
target triple = "x86_64-pc-linux-gnu"

@_ZL9_instance = internal global ptr null, align 8
@_ZN10JfrStorageC1ER14JfrChunkWriterR10JfrPostBox = hidden unnamed_addr alias void (ptr, ptr, ptr), ptr @_ZN10JfrStorageC2ER14JfrChunkWriterR10JfrPostBox

; Function Attrs: mustprogress nounwind uwtable
define hidden noundef ptr @_ZN10JfrStorage6createER14JfrChunkWriterR10JfrPostBox(ptr noundef nonnull align 8 dereferenceable(88) %0, ptr noundef nonnull align 8 dereferenceable(21) %1) #1 align 2 {
  %3 = alloca ptr, align 8
  %4 = alloca ptr, align 8
  store ptr %0, ptr %3, align 8
  store ptr %1, ptr %4, align 8
  %5 = call noundef ptr @_ZN11JfrCHeapObjnwEm(i64 noundef 48) #6
  %6 = icmp eq ptr %5, null
  br i1 %6, label %10, label %7

7:                                                ; preds = %2
  %8 = load ptr, ptr %3, align 8
  %9 = load ptr, ptr %4, align 8
  call void @_ZN10JfrStorageC1ER14JfrChunkWriterR10JfrPostBox(ptr noundef nonnull align 8 dereferenceable(48) %5, ptr noundef nonnull align 8 dereferenceable(88) %8, ptr noundef nonnull align 8 dereferenceable(21) %9)
  br label %10

10:                                               ; preds = %7, %2
  %11 = phi ptr [ %5, %7 ], [ null, %2 ]
  store ptr %11, ptr @_ZL9_instance, align 8
  %12 = load ptr, ptr @_ZL9_instance, align 8
  ret ptr %12
}