; Function Attrs: mustprogress nounwind uwtable
define hidden noundef ptr @_ZN10JfrStorage6createER14JfrChunkWriterR10JfrPostBox(ptr noundef nonnull align 8 dereferenceable(88) %0, ptr noundef nonnull align 8 dereferenceable(21) %1) local_unnamed_addr #1 align 2 {
  %3 = tail call noundef ptr @_ZN11JfrCHeapObjnwEm(i64 noundef 48) #16
  %4 = icmp eq ptr %3, null
  br i1 %4, label %8, label %5

5:                                                ; preds = %2
  %6 = getelementptr inbounds i8, ptr %3, i64 32
  tail call void @llvm.memset.p0.i64(ptr noundef nonnull align 8 dereferenceable(24) %3, i8 0, i64 24, i1 false)
  store ptr %0, ptr %6, align 8
  %7 = getelementptr inbounds i8, ptr %3, i64 40
  store ptr %1, ptr %7, align 8
  br label %8

8:                                                ; preds = %5, %2
  store ptr %3, ptr @_ZL9_instance, align 8
  ret ptr %3
}